; Function Attrs: nounwind uwtable
define dso_local zeroext i1 @cgroup_memcg_job_confinement() local_unnamed_addr #0 {
  %1 = tail call i32 @pthread_rwlock_rdlock(ptr noundef nonnull @cg_conf_lock) #12
  %.not = icmp eq i32 %1, 0
  br i1 %.not, label %4, label %2

2:                                                ; preds = %0
  %3 = tail call ptr @__errno_location() #13
  store i32 %1, ptr %3, align 4
  tail call void (ptr, ...) @fatal_abort(ptr noundef nonnull @.str.15, ptr noundef nonnull @__func__.cgroup_memcg_job_confinement) #14
  unreachable

4:                                                ; preds = %0
  %5 = load ptr, ptr getelementptr inbounds nuw (i8, ptr @slurm_cgroup_conf, i64 72), align 8
  %6 = tail call i32 @xstrcmp(ptr noundef %5, ptr noundef nonnull @.str.46) #12
  %.not7 = icmp eq i32 %6, 0
  br i1 %.not7, label %16, label %7

7:                                                ; preds = %4
  %8 = load i8, ptr getelementptr inbounds nuw (i8, ptr @slurm_cgroup_conf, i64 17), align 1, !range !8, !noundef !9
  %9 = trunc nuw i8 %8 to i1
  br i1 %9, label %13, label %10

10:                                               ; preds = %7
  %11 = load i8, ptr getelementptr inbounds nuw (i8, ptr @slurm_cgroup_conf, i64 40), align 8, !range !8, !noundef !9
  %12 = trunc nuw i8 %11 to i1
  br i1 %12, label %13, label %16

13:                                               ; preds = %10, %7
  %14 = load ptr, ptr getelementptr inbounds nuw (i8, ptr @slurm_conf, i64 1416), align 8
  %15 = tail call ptr @xstrstr(ptr noundef %14, ptr noundef nonnull @.str.47) #12
  %.not8 = icmp ne ptr %15, null
  br label %16

16:                                               ; preds = %13, %4, %10
  %.0 = phi i1 [ false, %10 ], [ false, %4 ], [ %.not8, %13 ]
  %17 = tail call i32 @pthread_rwlock_unlock(ptr noundef nonnull @cg_conf_lock) #12
  %.not9 = icmp eq i32 %17, 0
  br i1 %.not9, label %20, label %18

18:                                               ; preds = %16
  %19 = tail call ptr @__errno_location() #13
  store i32 %17, ptr %19, align 4
  tail call void (ptr, ...) @fatal_abort(ptr noundef nonnull @.str.14, ptr noundef nonnull @__func__.cgroup_memcg_job_confinement) #14
  unreachable

20:                                               ; preds = %16
  ret i1 %.0
}